target datalayout = "e-m:e-p270:32:32-p271:32:32-p272:64:64-i64:64-i128:128-f80:128-n8:16:32:64-S128"
target triple = "x86_64-pc-linux-gnu"

%struct.PaAlsaStream = type { %struct.PaUtilStreamRepresentation, %struct.PaUtilCpuLoadMeasurer, %struct.PaUtilBufferProcessor, %struct.PaUnixThread, i64, i64, i32, i32, i32, i32, ptr, i32, i32, i32, i32, %struct.PaUnixMutex, i32, double, double, %struct.PaAlsaStreamComponent, %struct.PaAlsaStreamComponent }
%struct.PaUtilStreamRepresentation = type { i64, ptr, ptr, ptr, ptr, ptr, %struct.PaStreamInfo }
%struct.PaStreamInfo = type { i32, double, double, double }
%struct.PaUtilCpuLoadMeasurer = type { double, double, double }
%struct.PaUtilBufferProcessor = type { i64, i64, i32, i32, i32, i32, i64, i32, i32, i32, i32, ptr, ptr, i32, i32, i32, i32, ptr, ptr, i64, i64, ptr, ptr, i64, ptr, ptr, i64, ptr, i64, i32, [2 x i64], [2 x ptr], i32, [2 x i64], [2 x ptr], %struct.PaUtilTriangularDitherGenerator, double, ptr, ptr }
%struct.PaUtilTriangularDitherGenerator = type { i32, i32, i32 }
%struct.PaUnixThread = type { i64, i32, i32, i32, %struct.PaUnixMutex, %union.pthread_cond_t, i32, i32 }
%union.pthread_cond_t = type { %struct.__pthread_cond_s }
%struct.__pthread_cond_s = type { %union.__atomic_wide_counter, %union.__atomic_wide_counter, [2 x i32], [2 x i32], i32, i32, [2 x i32] }
%union.__atomic_wide_counter = type { i64 }
%struct.PaUnixMutex = type { %union.pthread_mutex_t }
%union.pthread_mutex_t = type { %struct.__pthread_mutex_s }
%struct.__pthread_mutex_s = type { i32, i32, i32, i32, i32, i16, i16, %struct.__pthread_internal_list }
%struct.__pthread_internal_list = type { ptr, ptr }
%struct.PaAlsaStreamComponent = type { i64, i32, i32, i32, i32, i32, ptr, i32, i32, i32, i32, ptr, i64, i64, i32, i32, i32, ptr, i64, i32, ptr }
%struct.timespec = type { i64, i64 }

@alsa_snd_pcm_status = internal global ptr null, align 8
@alsa_snd_pcm_status_sizeof = internal global ptr null, align 8
@alsa_snd_pcm_status_get_htstamp = internal global ptr null, align 8
@alsa_snd_pcm_status_get_trigger_htstamp = internal global ptr null, align 8
@alsa_snd_pcm_status_get_delay = internal global ptr null, align 8

; Function Attrs: nounwind uwtable
define internal double @StatusToTime(ptr noundef %0, i32 noundef %1, ptr noundef %2) #0 {
  %4 = alloca ptr, align 8
  %5 = alloca i32, align 4
  %6 = alloca ptr, align 8
  %7 = alloca %struct.timespec, align 8
  store ptr %0, ptr %4, align 8, !tbaa !98
  store i32 %1, ptr %5, align 4, !tbaa !8
  store ptr %2, ptr %6, align 8, !tbaa !206
  call void @llvm.lifetime.start.p0(i64 16, ptr %7) #17
  %8 = load i32, ptr %5, align 4, !tbaa !8
  %9 = icmp ne i32 %8, 0
  br i1 %9, label %10, label %13

10:                                               ; preds = %3
  %11 = load ptr, ptr @alsa_snd_pcm_status_get_trigger_htstamp, align 8, !tbaa !32
  %12 = load ptr, ptr %4, align 8, !tbaa !98
  call void %11(ptr noundef %12, ptr noundef %7)
  br label %16

13:                                               ; preds = %3
  %14 = load ptr, ptr @alsa_snd_pcm_status_get_htstamp, align 8, !tbaa !32
  %15 = load ptr, ptr %4, align 8, !tbaa !98
  call void %14(ptr noundef %15, ptr noundef %7)
  br label %16

16:                                               ; preds = %13, %10
  %17 = load ptr, ptr %6, align 8, !tbaa !206
  %18 = icmp ne ptr %17, null
  br i1 %18, label %19, label %24

19:                                               ; preds = %16
  %20 = load ptr, ptr @alsa_snd_pcm_status_get_delay, align 8, !tbaa !32
  %21 = load ptr, ptr %4, align 8, !tbaa !98
  %22 = call i64 %20(ptr noundef %21)
  %23 = load ptr, ptr %6, align 8, !tbaa !206
  store i64 %22, ptr %23, align 8, !tbaa !37
  br label %24

24:                                               ; preds = %19, %16
  %25 = getelementptr inbounds nuw %struct.timespec, ptr %7, i32 0, i32 0
  %26 = load i64, ptr %25, align 8, !tbaa !222
  %27 = sitofp i64 %26 to double
  %28 = getelementptr inbounds nuw %struct.timespec, ptr %7, i32 0, i32 1
  %29 = load i64, ptr %28, align 8, !tbaa !224
  %30 = sitofp i64 %29 to double
  %31 = call double @llvm.fmuladd.f64(double %30, double 1.000000e-09, double %27)
  call void @llvm.lifetime.end.p0(i64 16, ptr %7) #17
  ret double %31
}

; Function Attrs: nounwind uwtable
define internal double @GetStreamTime(ptr noundef %0) #0 {
  %2 = alloca ptr, align 8
  %3 = alloca ptr, align 8
  %4 = alloca ptr, align 8
  %5 = alloca i64, align 8
  store ptr %0, ptr %2, align 8, !tbaa !32
  call void @llvm.lifetime.start.p0(i64 8, ptr %3) #17
  %6 = load ptr, ptr %2, align 8, !tbaa !32
  store ptr %6, ptr %3, align 8, !tbaa !38
  call void @llvm.lifetime.start.p0(i64 8, ptr %4) #17
  br label %7

7:                                                ; preds = %1
  call void @llvm.lifetime.start.p0(i64 8, ptr %5) #17
  %8 = load ptr, ptr @alsa_snd_pcm_status_sizeof, align 8, !tbaa !32
  %9 = call i64 %8()
  store i64 %9, ptr %5, align 8, !tbaa !37
  %10 = load i64, ptr %5, align 8, !tbaa !37
  %11 = alloca i8, i64 %10, align 16
  store ptr %11, ptr %4, align 8, !tbaa !98
  %12 = load ptr, ptr %4, align 8, !tbaa !98
  %13 = load i64, ptr %5, align 8, !tbaa !37
  call void @llvm.memset.p0.i64(ptr align 1 %12, i8 0, i64 %13, i1 false)
  call void @llvm.lifetime.end.p0(i64 8, ptr %5) #17
  br label %14

14:                                               ; preds = %7
  br label %15

15:                                               ; preds = %14
  %16 = load ptr, ptr %3, align 8, !tbaa !38
  %17 = getelementptr inbounds nuw %struct.PaAlsaStream, ptr %16, i32 0, i32 19
  %18 = getelementptr inbounds nuw %struct.PaAlsaStreamComponent, ptr %17, i32 0, i32 11
  %19 = load ptr, ptr %18, align 8, !tbaa !100
  %20 = icmp ne ptr %19, null
  br i1 %20, label %21, label %29

21:                                               ; preds = %15
  %22 = load ptr, ptr @alsa_snd_pcm_status, align 8, !tbaa !32
  %23 = load ptr, ptr %3, align 8, !tbaa !38
  %24 = getelementptr inbounds nuw %struct.PaAlsaStream, ptr %23, i32 0, i32 19
  %25 = getelementptr inbounds nuw %struct.PaAlsaStreamComponent, ptr %24, i32 0, i32 11
  %26 = load ptr, ptr %25, align 8, !tbaa !100
  %27 = load ptr, ptr %4, align 8, !tbaa !98
  %28 = call i32 %22(ptr noundef %26, ptr noundef %27)
  br label %44

29:                                               ; preds = %15
  %30 = load ptr, ptr %3, align 8, !tbaa !38
  %31 = getelementptr inbounds nuw %struct.PaAlsaStream, ptr %30, i32 0, i32 20
  %32 = getelementptr inbounds nuw %struct.PaAlsaStreamComponent, ptr %31, i32 0, i32 11
  %33 = load ptr, ptr %32, align 8, !tbaa !101
  %34 = icmp ne ptr %33, null
  br i1 %34, label %35, label %43

35:                                               ; preds = %29
  %36 = load ptr, ptr @alsa_snd_pcm_status, align 8, !tbaa !32
  %37 = load ptr, ptr %3, align 8, !tbaa !38
  %38 = getelementptr inbounds nuw %struct.PaAlsaStream, ptr %37, i32 0, i32 20
  %39 = getelementptr inbounds nuw %struct.PaAlsaStreamComponent, ptr %38, i32 0, i32 11
  %40 = load ptr, ptr %39, align 8, !tbaa !101
  %41 = load ptr, ptr %4, align 8, !tbaa !98
  %42 = call i32 %36(ptr noundef %40, ptr noundef %41)
  br label %43

43:                                               ; preds = %35, %29
  br label %44

44:                                               ; preds = %43, %21
  %45 = load ptr, ptr %4, align 8, !tbaa !98
  %46 = call double @StatusToTime(ptr noundef %45, i32 noundef 0, ptr noundef null)
  call void @llvm.lifetime.end.p0(i64 8, ptr %4) #17
  call void @llvm.lifetime.end.p0(i64 8, ptr %3) #17
  ret double %46
}