; Function Attrs: nounwind uwtable
define internal double @GetStreamTime(ptr noundef readonly captures(none) %0) #2 {
  %2 = alloca %struct.timespec, align 8
  %3 = tail call i64 @snd_pcm_status_sizeof() #25, !callees !128
  %4 = alloca i8, i64 %3, align 16
  call void @llvm.memset.p0.i64(ptr nonnull align 16 %4, i8 0, i64 %3, i1 false)
  %5 = getelementptr inbounds nuw i8, ptr %0, i64 704
  %6 = load ptr, ptr %5, align 8, !tbaa !129
  %.not = icmp eq ptr %6, null
  br i1 %.not, label %7, label %.sink.split

7:                                                ; preds = %1
  %8 = getelementptr inbounds nuw i8, ptr %0, i64 832
  %9 = load ptr, ptr %8, align 8, !tbaa !130
  %.not11 = icmp eq ptr %9, null
  br i1 %.not11, label %11, label %.sink.split

.sink.split:                                      ; preds = %7, %1
  %.sink = phi ptr [ %6, %1 ], [ %9, %7 ]
  %10 = call i32 @snd_pcm_status(ptr noundef nonnull %.sink, ptr noundef nonnull %4) #25
  br label %11

11:                                               ; preds = %.sink.split, %7
  call void @llvm.lifetime.start.p0(i64 16, ptr nonnull %2) #25
  call void @snd_pcm_status_get_htstamp(ptr noundef nonnull %4, ptr noundef nonnull %2) #25, !callees !131
  %12 = load i64, ptr %2, align 8, !tbaa !132
  %13 = sitofp i64 %12 to double
  %14 = getelementptr inbounds nuw i8, ptr %2, i64 8
  %15 = load i64, ptr %14, align 8, !tbaa !134
  %16 = sitofp i64 %15 to double
  %17 = call double @llvm.fmuladd.f64(double %16, double 1.000000e-09, double %13)
  call void @llvm.lifetime.end.p0(i64 16, ptr nonnull %2) #25
  ret double %17
}